target datalayout = "e-m:e-p270:32:32-p271:32:32-p272:64:64-i64:64-i128:128-f80:128-n8:16:32:64-S128"
target triple = "x86_64-pc-linux-gnu"

%struct.QVirtioPCIDevice = type { %struct.QOSGraphObject, %struct.QVirtioDevice, ptr, %struct.QPCIBar, ptr, i16, i64, i32, i32, i32, i32, i32, i32, i32 }
%struct.QOSGraphObject = type { ptr, ptr, ptr, ptr, ptr }
%struct.QVirtioDevice = type { ptr, i16, i64, i8, i8 }
%struct.QPCIBar = type { i64, i8 }
%struct.QVirtQueuePCI = type { %struct.QVirtQueue, i16, i64, i32, i64 }
%struct.QVirtQueue = type { ptr, i64, i64, i64, i16, i32, i32, i32, i32, i16, i8, i8 }

; Function Attrs: nounwind sspstrong uwtable
define internal void @virtqueue_kick(ptr noundef %0, ptr noundef %1) #0 {
  %3 = alloca ptr, align 8
  %4 = alloca ptr, align 8
  %5 = alloca ptr, align 8
  %6 = alloca ptr, align 8
  %7 = alloca ptr, align 8
  %8 = alloca ptr, align 8
  %9 = alloca ptr, align 8
  %10 = alloca ptr, align 8
  store ptr %0, ptr %3, align 8
  store ptr %1, ptr %4, align 8
  call void @llvm.lifetime.start.p0(i64 8, ptr %5) #5
  call void @llvm.lifetime.start.p0(i64 8, ptr %6) #5
  %11 = load ptr, ptr %3, align 8
  store ptr %11, ptr %6, align 8
  %12 = load ptr, ptr %6, align 8
  %13 = getelementptr inbounds i8, ptr %12, i64 -40
  store ptr %13, ptr %7, align 8
  call void @llvm.lifetime.end.p0(i64 8, ptr %6) #5
  %14 = load ptr, ptr %7, align 8
  store ptr %14, ptr %5, align 8
  call void @llvm.lifetime.start.p0(i64 8, ptr %8) #5
  call void @llvm.lifetime.start.p0(i64 8, ptr %9) #5
  %15 = load ptr, ptr %4, align 8
  store ptr %15, ptr %9, align 8
  %16 = load ptr, ptr %9, align 8
  %17 = getelementptr inbounds i8, ptr %16, i64 0
  store ptr %17, ptr %10, align 8
  call void @llvm.lifetime.end.p0(i64 8, ptr %9) #5
  %18 = load ptr, ptr %10, align 8
  store ptr %18, ptr %8, align 8
  %19 = load ptr, ptr %5, align 8
  %20 = getelementptr inbounds nuw %struct.QVirtioPCIDevice, ptr %19, i32 0, i32 2
  %21 = load ptr, ptr %20, align 8
  %22 = load ptr, ptr %5, align 8
  %23 = getelementptr inbounds nuw %struct.QVirtioPCIDevice, ptr %22, i32 0, i32 3
  %24 = load ptr, ptr %8, align 8
  %25 = getelementptr inbounds nuw %struct.QVirtQueuePCI, ptr %24, i32 0, i32 4
  %26 = load i64, ptr %25, align 8
  %27 = load ptr, ptr %4, align 8
  %28 = getelementptr inbounds nuw %struct.QVirtQueue, ptr %27, i32 0, i32 4
  %29 = load i16, ptr %28, align 8
  %30 = getelementptr inbounds nuw { i64, i8 }, ptr %23, i32 0, i32 0
  %31 = load i64, ptr %30, align 8
  %32 = getelementptr inbounds nuw { i64, i8 }, ptr %23, i32 0, i32 1
  %33 = load i8, ptr %32, align 8
  call void @qpci_io_writew(ptr noundef %21, i64 %31, i8 %33, i64 noundef %26, i16 noundef zeroext %29)
  call void @llvm.lifetime.end.p0(i64 8, ptr %8) #5
  call void @llvm.lifetime.end.p0(i64 8, ptr %5) #5
  ret void
}