; Function Attrs: nounwind sspstrong uwtable
define internal void @virtqueue_kick(ptr noundef readonly captures(none) %0, ptr noundef readonly captures(none) %1) #0 {
  %3 = getelementptr inbounds nuw i8, ptr %0, i64 32
  %4 = load ptr, ptr %3, align 8
  %5 = getelementptr inbounds nuw i8, ptr %0, i64 40
  %6 = getelementptr inbounds nuw i8, ptr %1, i64 80
  %7 = load i64, ptr %6, align 8
  %8 = getelementptr inbounds nuw i8, ptr %1, i64 32
  %9 = load i16, ptr %8, align 8
  %10 = load i64, ptr %5, align 8
  %11 = getelementptr inbounds nuw i8, ptr %0, i64 48
  %12 = load i8, ptr %11, align 8
  tail call void @qpci_io_writew(ptr noundef %4, i64 %10, i8 %12, i64 noundef %7, i16 noundef zeroext %9) #3
  ret void
}